; ModuleID = 'source-C-CXX/25/911.c'
source_filename = "source-C-CXX/25/911.c"
target datalayout = "e-m:e-p270:32:32-p271:32:32-p272:64:64-i64:64-f80:128-n8:16:32:64-S128"
target triple = "x86_64-pc-linux-gnu"

@.str = private unnamed_addr constant [3 x i8] c"%s\00", align 1

; Function Attrs: nounwind sspstrong uwtable
define dso_local i32 @main() local_unnamed_addr #0 {
  %1 = alloca [100 x i8], align 16
  %2 = alloca [100 x i8], align 16
  %3 = getelementptr inbounds [100 x i8], [100 x i8]* %1, i64 0, i64 0
  call void @llvm.lifetime.start.p0i8(i64 100, i8* nonnull %3) #4
  %4 = getelementptr inbounds [100 x i8], [100 x i8]* %2, i64 0, i64 0
  call void @llvm.lifetime.start.p0i8(i64 100, i8* nonnull %4) #4
  %5 = call i32 (i8*, ...) bitcast (i32 (...)* @gets to i32 (i8*, ...)*)(i8* nonnull %3) #4
  %6 = load i8, i8* %3, align 16, !tbaa !5
  %7 = icmp eq i8 %6, 0
  br i1 %7, label %31, label %8

8:                                                ; preds = %0, %24
  %9 = phi i64 [ %13, %24 ], [ 0, %0 ]
  %10 = phi i8 [ %25, %24 ], [ %6, %0 ]
  %11 = phi i8* [ %27, %24 ], [ %3, %0 ]
  %12 = getelementptr inbounds [100 x i8], [100 x i8]* %2, i64 0, i64 %9
  store i8 %10, i8* %12, align 1, !tbaa !5
  %13 = add nuw i64 %9, 1
  %14 = load i8, i8* %11, align 1, !tbaa !5
  %15 = icmp eq i8 %14, 32
  br i1 %15, label %19, label %16

16:                                               ; preds = %8
  %17 = getelementptr inbounds i8, i8* %11, i64 1
  %18 = load i8, i8* %17, align 1, !tbaa !5
  br label %24

19:                                               ; preds = %8, %19
  %20 = phi i8* [ %21, %19 ], [ %11, %8 ]
  %21 = getelementptr inbounds i8, i8* %20, i64 1
  %22 = load i8, i8* %21, align 1, !tbaa !5
  %23 = icmp eq i8 %22, 32
  br i1 %23, label %19, label %24, !llvm.loop !8

24:                                               ; preds = %19, %16
  %25 = phi i8 [ %18, %16 ], [ %22, %19 ]
  %26 = phi i8* [ %11, %16 ], [ %20, %19 ]
  %27 = getelementptr inbounds i8, i8* %26, i64 1
  %28 = icmp eq i8 %25, 0
  br i1 %28, label %29, label %8, !llvm.loop !10

29:                                               ; preds = %24
  %30 = and i64 %13, 4294967295
  br label %31

31:                                               ; preds = %29, %0
  %32 = phi i64 [ 0, %0 ], [ %30, %29 ]
  %33 = getelementptr inbounds [100 x i8], [100 x i8]* %2, i64 0, i64 %32
  store i8 0, i8* %33, align 1, !tbaa !5
  %34 = call i32 (i8*, ...) @printf(i8* nonnull dereferenceable(1) getelementptr inbounds ([3 x i8], [3 x i8]* @.str, i64 0, i64 0), i8* nonnull %4)
  call void @llvm.lifetime.end.p0i8(i64 100, i8* nonnull %4) #4
  call void @llvm.lifetime.end.p0i8(i64 100, i8* nonnull %3) #4
  ret i32 0
}

; Function Attrs: argmemonly mustprogress nofree nosync nounwind willreturn
declare void @llvm.lifetime.start.p0i8(i64 immarg, i8* nocapture) #1

declare i32 @gets(...) local_unnamed_addr #2

; Function Attrs: nofree nounwind
declare noundef i32 @printf(i8* nocapture noundef readonly, ...) local_unnamed_addr #3

; Function Attrs: argmemonly mustprogress nofree nosync nounwind willreturn
declare void @llvm.lifetime.end.p0i8(i64 immarg, i8* nocapture) #1


!llvm.module.flags = !{!0, !1, !2, !3}
!llvm.ident = !{!4}

!0 = !{i32 1, !"wchar_size", i32 4}
!1 = !{i32 7, !"PIC Level", i32 2}
!2 = !{i32 7, !"PIE Level", i32 2}
!3 = !{i32 7, !"uwtable", i32 1}
!4 = !{!"clang version 13.0.0"}
!5 = !{!6, !6, i64 0}
!6 = !{!"omnipotent char", !7, i64 0}
!7 = !{!"Simple C/C++ TBAA"}
!8 = distinct !{!8, !9}
!9 = !{!"llvm.loop.mustprogress"}
!10 = distinct !{!10, !9}
